; Function Attrs: mustprogress nofree norecurse nosync nounwind willreturn memory(read, inaccessiblemem: none) uwtable
define hidden noundef zeroext i1 @_ZNK16OverflowSubINode12can_overflowEPK4TypeS2_(ptr nocapture noundef nonnull readonly align 8 dereferenceable(52) %0, ptr nocapture noundef readnone %1, ptr noundef readnone %2) unnamed_addr #2 align 2 {
  %4 = getelementptr inbounds i8, ptr %0, i64 8
  %5 = load ptr, ptr %4, align 8
  %6 = getelementptr inbounds i8, ptr %5, i64 8
  %7 = load ptr, ptr %6, align 8
  %8 = getelementptr inbounds i8, ptr %5, i64 16
  %9 = load ptr, ptr %8, align 8
  %10 = icmp ne ptr %7, %9
  %11 = load ptr, ptr @_ZN7TypeInt4ZEROE, align 8
  %12 = icmp ne ptr %11, %2
  %.0 = select i1 %10, i1 %12, i1 false
  ret i1 %.0
}